; Function Attrs: nounwind uwtable
define noalias noundef ptr @Gia_ManStartMappingFanoutMap(ptr noundef readonly captures(none) %0, ptr noundef readonly captures(none) %1) local_unnamed_addr #0 {
  %3 = getelementptr i8, ptr %0, i64 24
  %.val = load i32, ptr %3, align 8, !tbaa !3
  %4 = shl nsw i32 %.val, 1
  %5 = tail call noalias dereferenceable_or_null(16) ptr @malloc(i64 noundef 16) #13
  %6 = add i32 %4, -1
  %or.cond.i = icmp ult i32 %6, 15
  %spec.store.select.i = select i1 %or.cond.i, i32 16, i32 %4
  %7 = getelementptr inbounds nuw i8, ptr %5, i64 4
  store i32 %spec.store.select.i, ptr %5, align 8, !tbaa !40
  %.not.i = icmp eq i32 %spec.store.select.i, 0
  br i1 %.not.i, label %Vec_IntAlloc.exit.thread, label %Vec_IntAlloc.exit

Vec_IntAlloc.exit:                                ; preds = %2
  %8 = sext i32 %spec.store.select.i to i64
  %9 = shl nsw i64 %8, 2
  %10 = tail call noalias ptr @malloc(i64 noundef %9) #13
  %11 = getelementptr inbounds nuw i8, ptr %5, i64 8
  store ptr %10, ptr %11, align 8, !tbaa !41
  %.not.i.i = icmp slt i32 %spec.store.select.i, %.val
  br i1 %.not.i.i, label %15, label %Vec_IntGrow.exit.i

Vec_IntAlloc.exit.thread:                         ; preds = %2
  %12 = getelementptr inbounds nuw i8, ptr %5, i64 8
  store ptr null, ptr %12, align 8, !tbaa !41
  %.not.i.i29 = icmp sgt i32 %.val, 0
  br i1 %.not.i.i29, label %.thread, label %Vec_IntFill.exit.thread

.thread:                                          ; preds = %Vec_IntAlloc.exit.thread
  %13 = zext nneg i32 %.val to i64
  %14 = shl nuw nsw i64 %13, 2
  br label %20

15:                                               ; preds = %Vec_IntAlloc.exit
  %.not9.i.i = icmp eq ptr %10, null
  %16 = sext i32 %.val to i64
  %17 = shl nsw i64 %16, 2
  br i1 %.not9.i.i, label %20, label %18

18:                                               ; preds = %15
  %19 = tail call ptr @realloc(ptr noundef nonnull %10, i64 noundef %17) #14
  br label %24

20:                                               ; preds = %.thread, %15
  %21 = phi i64 [ %14, %.thread ], [ %17, %15 ]
  %22 = phi ptr [ %12, %.thread ], [ %11, %15 ]
  %23 = tail call noalias ptr @malloc(i64 noundef %21) #13
  br label %24

24:                                               ; preds = %20, %18
  %25 = phi ptr [ %11, %18 ], [ %22, %20 ]
  %26 = phi ptr [ %19, %18 ], [ %23, %20 ]
  store ptr %26, ptr %25, align 8, !tbaa !41
  store i32 %.val, ptr %5, align 8, !tbaa !40
  br label %Vec_IntGrow.exit.i

Vec_IntGrow.exit.i:                               ; preds = %24, %Vec_IntAlloc.exit
  %27 = phi ptr [ %26, %24 ], [ %10, %Vec_IntAlloc.exit ]
  %28 = phi ptr [ %25, %24 ], [ %11, %Vec_IntAlloc.exit ]
  %29 = icmp sgt i32 %.val, 0
  br i1 %29, label %Vec_IntFill.exit, label %Vec_IntFill.exit.thread

Vec_IntFill.exit.thread:                          ; preds = %Vec_IntGrow.exit.i, %Vec_IntAlloc.exit.thread
  store i32 %.val, ptr %7, align 4, !tbaa !37
  br label %.critedge

Vec_IntFill.exit:                                 ; preds = %Vec_IntGrow.exit.i
  %30 = zext nneg i32 %.val to i64
  %31 = shl nuw nsw i64 %30, 2
  tail call void @llvm.memset.p0.i64(ptr align 4 %27, i8 0, i64 %31, i1 false), !tbaa !34
  %.pre = load i32, ptr %3, align 8, !tbaa !3
  %32 = icmp sgt i32 %.pre, 0
  store i32 %.val, ptr %7, align 4, !tbaa !37
  %33 = getelementptr i8, ptr %0, i64 32
  br i1 %32, label %.lr.ph, label %.critedge

.lr.ph:                                           ; preds = %Vec_IntFill.exit
  %34 = getelementptr i8, ptr %1, i64 8
  br label %35

35:                                               ; preds = %.lr.ph, %Vec_IntFillExtra.exit
  %36 = phi ptr [ %27, %.lr.ph ], [ %60, %Vec_IntFillExtra.exit ]
  %.val21 = phi ptr [ %27, %.lr.ph ], [ %.val2136, %Vec_IntFillExtra.exit ]
  %indvars.iv = phi i64 [ 0, %.lr.ph ], [ %indvars.iv.next, %Vec_IntFillExtra.exit ]
  %.01931 = phi i32 [ %.val, %.lr.ph ], [ %.1, %Vec_IntFillExtra.exit ]
  %.val20 = load ptr, ptr %33, align 8, !tbaa !30
  %.not = icmp eq ptr %.val20, null
  br i1 %.not, label %.critedge, label %37

37:                                               ; preds = %35
  %.val23 = load ptr, ptr %34, align 8, !tbaa !41
  %38 = getelementptr inbounds nuw i32, ptr %.val23, i64 %indvars.iv
  %39 = load i32, ptr %38, align 4, !tbaa !34
  %40 = icmp eq i32 %39, 0
  br i1 %40, label %Vec_IntFillExtra.exit, label %41

41:                                               ; preds = %37
  %42 = getelementptr inbounds nuw i32, ptr %.val21, i64 %indvars.iv
  store i32 %.01931, ptr %42, align 4, !tbaa !34
  %43 = load i32, ptr %38, align 4, !tbaa !34
  %44 = add nsw i32 %43, %.01931
  %45 = load i32, ptr %7, align 4, !tbaa !37
  %.not.i24 = icmp sgt i32 %44, %45
  br i1 %.not.i24, label %46, label %Vec_IntFillExtra.exit

46:                                               ; preds = %41
  %47 = load i32, ptr %5, align 8, !tbaa !40
  %.not.i.i25 = icmp slt i32 %47, %44
  br i1 %.not.i.i25, label %Vec_IntGrow.exit.sink.split.i, label %._crit_edge.i

Vec_IntGrow.exit.sink.split.i:                    ; preds = %46
  %48 = shl nsw i32 %47, 1
  %. = tail call i32 @llvm.smax.i32(i32 %44, i32 %48)
  %49 = sext i32 %. to i64
  %50 = shl nsw i64 %49, 2
  %51 = tail call ptr @realloc(ptr noundef nonnull %.val21, i64 noundef %50) #14
  store ptr %51, ptr %28, align 8, !tbaa !41
  store i32 %., ptr %5, align 8, !tbaa !40
  br label %._crit_edge.i

._crit_edge.i:                                    ; preds = %46, %Vec_IntGrow.exit.sink.split.i
  %52 = phi ptr [ %51, %Vec_IntGrow.exit.sink.split.i ], [ %36, %46 ]
  %53 = sext i32 %45 to i64
  %54 = shl nsw i64 %53, 2
  %scevgep.i = getelementptr i8, ptr %52, i64 %54
  %55 = xor i32 %45, -1
  %56 = add i32 %44, %55
  %57 = zext i32 %56 to i64
  %58 = shl nuw nsw i64 %57, 2
  %59 = add nuw nsw i64 %58, 4
  tail call void @llvm.memset.p0.i64(ptr noundef nonnull align 4 dereferenceable(1) %scevgep.i, i8 0, i64 %59, i1 false), !tbaa !34
  store i32 %44, ptr %7, align 4, !tbaa !37
  br label %Vec_IntFillExtra.exit

Vec_IntFillExtra.exit:                            ; preds = %._crit_edge.i, %41, %37
  %60 = phi ptr [ %36, %37 ], [ %36, %41 ], [ %52, %._crit_edge.i ]
  %.val2136 = phi ptr [ %.val21, %37 ], [ %.val21, %41 ], [ %52, %._crit_edge.i ]
  %.1 = phi i32 [ %.01931, %37 ], [ %44, %41 ], [ %44, %._crit_edge.i ]
  %indvars.iv.next = add nuw nsw i64 %indvars.iv, 1
  %61 = load i32, ptr %3, align 8, !tbaa !3
  %62 = sext i32 %61 to i64
  %63 = icmp slt i64 %indvars.iv.next, %62
  br i1 %63, label %35, label %.critedge, !llvm.loop !47

.critedge:                                        ; preds = %35, %Vec_IntFillExtra.exit, %Vec_IntFill.exit.thread, %Vec_IntFill.exit
  ret ptr %5
}